; Function Attrs: mustprogress nounwind uwtable
define hidden noundef i64 @_ZNK7LIRItem18get_jlong_constantEv(ptr nocapture noundef nonnull readonly align 8 dereferenceable(40) %0) local_unnamed_addr #3 align 2 {
  %2 = load ptr, ptr %0, align 8
  %3 = getelementptr inbounds i8, ptr %2, i64 24
  %4 = load ptr, ptr %3, align 8
  %5 = load ptr, ptr %4, align 8
  %6 = getelementptr inbounds i8, ptr %5, i64 144
  %7 = load ptr, ptr %6, align 8
  %8 = tail call noundef ptr %7(ptr noundef nonnull align 8 dereferenceable(16) %4) #17
  %9 = getelementptr inbounds i8, ptr %8, i64 16
  %10 = load i64, ptr %9, align 8
  ret i64 %10
}